; Function Attrs: mustprogress nounwind uwtable
define dso_local void @_ZN5clang10ImportDeclC2EPNS_11DeclContextENS_14SourceLocationEPNS_6ModuleES3_(ptr noundef nonnull align 8 dereferenceable(56) %0, ptr noundef %1, i32 %2, ptr noundef %3, i32 %4) unnamed_addr #2 align 2 {
  tail call void @_ZN5clang4DeclC2ENS0_4KindEPNS_11DeclContextENS_14SourceLocationE(ptr noundef nonnull align 8 dereferenceable(33) %0, i32 noundef 79, ptr noundef %1, i32 %2)
  store ptr getelementptr inbounds inrange(-16, 80) (i8, ptr @_ZTVN5clang10ImportDeclE, i64 16), ptr %0, align 8
  %6 = getelementptr inbounds nuw i8, ptr %0, i64 40
  store ptr %3, ptr %6, align 8
  %7 = getelementptr inbounds nuw i8, ptr %0, i64 48
  store i64 0, ptr %7, align 8
  %8 = getelementptr inbounds i8, ptr %0, i64 56
  store i32 %4, ptr %8, align 8
  ret void
}